; Function Attrs: mustprogress uwtable
define dso_local void @_ZN3net14QuicConnection19OnHandshakeCompleteEv(ptr noundef nonnull align 8 dereferenceable(3372) %this) local_unnamed_addr #0 align 2 {
entry:
  %sent_packet_manager_ = getelementptr inbounds i8, ptr %this, i64 3192
  %0 = load ptr, ptr %sent_packet_manager_, align 8
  %vtable = load ptr, ptr %0, align 8
  %vfn = getelementptr inbounds i8, ptr %vtable, i64 48
  %1 = load ptr, ptr %vfn, align 8
  tail call void %1(ptr noundef nonnull align 8 dereferenceable(8) %0)
  %perspective_ = getelementptr inbounds i8, ptr %this, i64 3204
  %2 = load i32, ptr %perspective_, align 4
  %cmp = icmp eq i32 %2, 1
  br i1 %cmp, label %land.lhs.true, label %if.end

land.lhs.true:                                    ; preds = %entry
  %ack_queued_ = getelementptr inbounds i8, ptr %this, i64 1240
  %3 = load i8, ptr %ack_queued_, align 8
  %4 = and i8 %3, 1
  %tobool.not = icmp eq i8 %4, 0
  br i1 %tobool.not, label %land.lhs.true2, label %if.end

land.lhs.true2:                                   ; preds = %land.lhs.true
  %received_packet_manager_.i = getelementptr inbounds i8, ptr %this, i64 864
  %call.i = tail call noundef zeroext i1 @_ZNK3net25QuicReceivedPacketManager17ack_frame_updatedEv(ptr noundef nonnull align 8 dereferenceable(248) %received_packet_manager_.i)
  br i1 %call.i, label %if.then, label %if.end

if.then:                                          ; preds = %land.lhs.true2
  %ack_alarm_ = getelementptr inbounds i8, ptr %this, i64 2336
  %5 = load ptr, ptr %ack_alarm_, align 8
  %6 = ptrtoint ptr %5 to i64
  %and.i.i = and i64 %6, -2
  %7 = inttoptr i64 %and.i.i to ptr
  %clock_ = getelementptr inbounds i8, ptr %this, i64 480
  %8 = load ptr, ptr %clock_, align 8
  %vtable5 = load ptr, ptr %8, align 8
  %vfn6 = getelementptr inbounds i8, ptr %vtable5, i64 16
  %9 = load ptr, ptr %vfn6, align 8
  %call7 = tail call i64 %9(ptr noundef nonnull align 8 dereferenceable(8) %8)
  tail call void @_ZN3net9QuicAlarm6UpdateENS_8QuicTimeENS1_5DeltaE(ptr noundef nonnull align 8 dereferenceable(24) %7, i64 %call7, i64 0, i64 0)
  br label %if.end

if.end:                                           ; preds = %if.then, %land.lhs.true2, %land.lhs.true, %entry
  ret void
}